target datalayout = "e-m:e-p270:32:32-p271:32:32-p272:64:64-i64:64-i128:128-f80:128-n8:16:32:64-S128"
target triple = "x86_64-pc-linux-gnu"

; Function Attrs: mustprogress nounwind uwtable
define internal noundef i32 @_ZL13_hb_arabic_b4PKhj(ptr noundef %0, i32 noundef %1) #1 {
  %3 = alloca ptr, align 8
  %4 = alloca i32, align 4
  store ptr %0, ptr %3, align 8
  store i32 %1, ptr %4, align 4
  %5 = load ptr, ptr %3, align 8
  %6 = load i32, ptr %4, align 4
  %7 = lshr i32 %6, 1
  %8 = zext i32 %7 to i64
  %9 = getelementptr inbounds i8, ptr %5, i64 %8
  %10 = load i8, ptr %9, align 1
  %11 = zext i8 %10 to i32
  %12 = load i32, ptr %4, align 4
  %13 = and i32 %12, 1
  %14 = shl i32 %13, 2
  %15 = ashr i32 %11, %14
  %16 = and i32 %15, 15
  ret i32 %16
}

; Function Attrs: mustprogress nounwind uwtable
define internal noundef i64 @_ZL23_hb_arabic_pua_trad_mapj(i32 noundef %0) #1 {
  %2 = alloca i32, align 4
  store i32 %0, ptr %2, align 4
  %3 = load i32, ptr %2, align 4
  %4 = icmp ult i32 %3, 65277
  br i1 %4, label %5, label %37

5:                                                ; preds = %1
  %6 = load i32, ptr %2, align 4
  %7 = lshr i32 %6, 2
  %8 = lshr i32 %7, 4
  %9 = lshr i32 %8, 4
  %10 = call noundef i32 @_ZL13_hb_arabic_b4PKhj(ptr noundef getelementptr inbounds (i8, ptr @_ZL13_hb_arabic_u8, i64 136), i32 noundef %9)
  %11 = shl i32 %10, 4
  %12 = load i32, ptr %2, align 4
  %13 = lshr i32 %12, 2
  %14 = lshr i32 %13, 4
  %15 = and i32 %14, 15
  %16 = add i32 %11, %15
  %17 = call noundef i32 @_ZL13_hb_arabic_b4PKhj(ptr noundef getelementptr inbounds (i8, ptr @_ZL13_hb_arabic_u8, i64 168), i32 noundef %16)
  %18 = shl i32 %17, 4
  %19 = load i32, ptr %2, align 4
  %20 = lshr i32 %19, 2
  %21 = and i32 %20, 15
  %22 = add i32 %18, %21
  %23 = add i32 208, %22
  %24 = zext i32 %23 to i64
  %25 = getelementptr inbounds [464 x i8], ptr @_ZL13_hb_arabic_u8, i64 0, i64 %24
  %26 = load i8, ptr %25, align 1
  %27 = zext i8 %26 to i32
  %28 = shl i32 %27, 2
  %29 = load i32, ptr %2, align 4
  %30 = and i32 %29, 3
  %31 = add i32 %28, %30
  %32 = add i32 320, %31
  %33 = zext i32 %32 to i64
  %34 = getelementptr inbounds [720 x i16], ptr @_ZL14_hb_arabic_u16, i64 0, i64 %33
  %35 = load i16, ptr %34, align 2
  %36 = zext i16 %35 to i32
  br label %38

37:                                               ; preds = %1
  br label %38

38:                                               ; preds = %37, %5
  %39 = phi i32 [ %36, %5 ], [ 0, %37 ]
  %40 = sext i32 %39 to i64
  ret i64 %40
}

; Function Attrs: mustprogress uwtable
define internal noundef zeroext i1 @_ZN2OT4cmap13accelerator_t21get_glyph_from_symbolINS_12CmapSubtableEXadL_ZL23_hb_arabic_pua_trad_mapjEEEEbPKvjPj(ptr noundef %0, i32 noundef %1, ptr noundef %2) #0 align 2 {
  %4 = alloca i1, align 1
  %5 = alloca ptr, align 8
  %6 = alloca i32, align 4
  %7 = alloca ptr, align 8
  %8 = alloca ptr, align 8
  %9 = alloca i32, align 4
  store ptr %0, ptr %5, align 8
  store i32 %1, ptr %6, align 4
  store ptr %2, ptr %7, align 8
  %10 = load ptr, ptr %5, align 8
  store ptr %10, ptr %8, align 8
  %11 = load ptr, ptr %8, align 8
  %12 = load i32, ptr %6, align 4
  %13 = load ptr, ptr %7, align 8
  %14 = call noundef zeroext i1 @_ZNK2OT12CmapSubtable9get_glyphEjPj(ptr noundef nonnull align 1 dereferenceable(262) %11, i32 noundef %12, ptr noundef %13)
  br i1 %14, label %15, label %16

15:                                               ; preds = %3
  store i1 true, ptr %4, align 1
  br label %28

16:                                               ; preds = %3
  %17 = load i32, ptr %6, align 4
  %18 = call noundef i64 @_ZL23_hb_arabic_pua_trad_mapj(i32 noundef %17)
  %19 = trunc i64 %18 to i32
  store i32 %19, ptr %9, align 4
  %20 = load i32, ptr %9, align 4
  %21 = icmp ne i32 %20, 0
  br i1 %21, label %22, label %27

22:                                               ; preds = %16
  %23 = load ptr, ptr %8, align 8
  %24 = load i32, ptr %9, align 4
  %25 = load ptr, ptr %7, align 8
  %26 = call noundef zeroext i1 @_ZNK2OT12CmapSubtable9get_glyphEjPj(ptr noundef nonnull align 1 dereferenceable(262) %23, i32 noundef %24, ptr noundef %25)
  store i1 %26, ptr %4, align 1
  br label %28

27:                                               ; preds = %16
  store i1 false, ptr %4, align 1
  br label %28

28:                                               ; preds = %27, %22, %15
  %29 = load i1, ptr %4, align 1
  ret i1 %29
}