; Function Attrs: mustprogress uwtable
define internal noundef zeroext i1 @_ZN2OT4cmap13accelerator_t21get_glyph_from_symbolINS_12CmapSubtableEXadL_ZL23_hb_arabic_pua_trad_mapjEEEEbPKvjPj(ptr noundef nonnull %0, i32 noundef %1, ptr noundef %2) #0 align 2 {
  %4 = tail call noundef zeroext i1 @_ZNK2OT12CmapSubtable9get_glyphEjPj(ptr noundef nonnull align 1 dereferenceable(262) %0, i32 noundef %1, ptr noundef %2)
  br i1 %4, label %_ZL23_hb_arabic_pua_trad_mapj.exit.thread, label %5

5:                                                ; preds = %3
  %6 = icmp ult i32 %1, 65277
  br i1 %6, label %_ZL23_hb_arabic_pua_trad_mapj.exit, label %_ZL23_hb_arabic_pua_trad_mapj.exit.thread

_ZL23_hb_arabic_pua_trad_mapj.exit:               ; preds = %5
  %7 = lshr i32 %1, 2
  %8 = lshr i32 %1, 6
  %9 = lshr i32 %1, 11
  %10 = zext nneg i32 %9 to i64
  %11 = getelementptr inbounds i8, ptr getelementptr inbounds (i8, ptr @_ZL13_hb_arabic_u8, i64 136), i64 %10
  %12 = load i8, ptr %11, align 1
  %13 = zext i8 %12 to i32
  %14 = lshr i32 %1, 8
  %15 = and i32 %14, 4
  %16 = lshr i32 %13, %15
  %17 = shl nuw nsw i32 %16, 4
  %18 = and i32 %17, 240
  %19 = and i32 %8, 14
  %20 = or disjoint i32 %18, %19
  %21 = lshr exact i32 %20, 1
  %22 = zext nneg i32 %21 to i64
  %23 = getelementptr inbounds i8, ptr getelementptr inbounds (i8, ptr @_ZL13_hb_arabic_u8, i64 168), i64 %22
  %24 = load i8, ptr %23, align 1
  %25 = zext i8 %24 to i32
  %26 = shl nuw nsw i32 %8, 2
  %27 = and i32 %26, 4
  %28 = lshr i32 %25, %27
  %29 = shl nuw nsw i32 %28, 4
  %30 = and i32 %29, 240
  %31 = and i32 %7, 15
  %32 = or disjoint i32 %31, 208
  %33 = add nuw nsw i32 %32, %30
  %34 = zext nneg i32 %33 to i64
  %35 = getelementptr inbounds [464 x i8], ptr @_ZL13_hb_arabic_u8, i64 0, i64 %34
  %36 = load i8, ptr %35, align 1
  %37 = zext i8 %36 to i32
  %38 = shl nuw nsw i32 %37, 2
  %39 = and i32 %1, 3
  %40 = or disjoint i32 %39, 320
  %41 = add nuw nsw i32 %40, %38
  %42 = zext nneg i32 %41 to i64
  %43 = getelementptr inbounds [720 x i16], ptr @_ZL14_hb_arabic_u16, i64 0, i64 %42
  %44 = load i16, ptr %43, align 2
  %.not = icmp eq i16 %44, 0
  br i1 %.not, label %_ZL23_hb_arabic_pua_trad_mapj.exit.thread, label %45

45:                                               ; preds = %_ZL23_hb_arabic_pua_trad_mapj.exit
  %46 = zext i16 %44 to i32
  %47 = tail call noundef zeroext i1 @_ZNK2OT12CmapSubtable9get_glyphEjPj(ptr noundef nonnull align 1 dereferenceable(262) %0, i32 noundef %46, ptr noundef %2)
  br label %_ZL23_hb_arabic_pua_trad_mapj.exit.thread

_ZL23_hb_arabic_pua_trad_mapj.exit.thread:        ; preds = %5, %_ZL23_hb_arabic_pua_trad_mapj.exit, %3, %45
  %.0 = phi i1 [ %47, %45 ], [ true, %3 ], [ false, %_ZL23_hb_arabic_pua_trad_mapj.exit ], [ false, %5 ]
  ret i1 %.0
}